target datalayout = "e-m:e-p270:32:32-p271:32:32-p272:64:64-i64:64-i128:128-f80:128-n8:16:32:64-S128"
target triple = "x86_64-pc-linux-gnu"

%struct._GString = type { ptr, i64, i64 }

@socket_fd = internal global i32 0, align 4
@path_to_unlink = internal global ptr null, align 8
@blocks = internal global ptr null, align 8
@insn_count = internal global i64 0, align 8
@bb_count = internal global i64 0, align 8
@log = internal global ptr null, align 8
@divergence_log = internal global ptr null, align 8
@.str.24 = private unnamed_addr constant [19 x i8] c"No divergence :-)\0A\00", align 1
@.str.25 = private unnamed_addr constant [24 x i8] c"Executed %ld/%d blocks\0A\00", align 1
@.str.26 = private unnamed_addr constant [28 x i8] c"Executed ~%ld instructions\0A\00", align 1

; Function Attrs: inlinehint nounwind sspstrong uwtable
define internal void @g_autoptr_cleanup_gstring_free(ptr noundef %0) #2 {
  %2 = alloca ptr, align 8
  store ptr %0, ptr %2, align 8
  %3 = load ptr, ptr %2, align 8
  %4 = icmp ne ptr %3, null
  br i1 %4, label %5, label %8

5:                                                ; preds = %1
  %6 = load ptr, ptr %2, align 8
  %7 = call ptr @g_string_free(ptr noundef %6, i32 noundef 1)
  br label %8

8:                                                ; preds = %5, %1
  ret void
}

; Function Attrs: inlinehint nounwind sspstrong uwtable
define internal void @glib_autoptr_clear_GString(ptr noundef %0) #2 {
  %2 = alloca ptr, align 8
  store ptr %0, ptr %2, align 8
  %3 = load ptr, ptr %2, align 8
  %4 = icmp ne ptr %3, null
  br i1 %4, label %5, label %7

5:                                                ; preds = %1
  %6 = load ptr, ptr %2, align 8
  call void @g_autoptr_cleanup_gstring_free(ptr noundef %6)
  br label %7

7:                                                ; preds = %5, %1
  ret void
}

; Function Attrs: inlinehint nounwind sspstrong uwtable
define internal void @glib_autoptr_cleanup_GString(ptr noundef %0) #2 {
  %2 = alloca ptr, align 8
  store ptr %0, ptr %2, align 8
  %3 = load ptr, ptr %2, align 8
  %4 = load ptr, ptr %3, align 8
  call void @glib_autoptr_clear_GString(ptr noundef %4)
  ret void
}

; Function Attrs: nounwind sspstrong uwtable
define internal void @plugin_cleanup(i64 noundef %0) #0 {
  %2 = alloca i64, align 8
  store i64 %0, ptr %2, align 8
  %3 = load ptr, ptr @blocks, align 8
  call void @g_slist_free_full(ptr noundef %3, ptr noundef @g_free)
  %4 = load ptr, ptr @log, align 8
  call void @g_slist_free_full(ptr noundef %4, ptr noundef @g_free)
  %5 = load ptr, ptr @divergence_log, align 8
  call void @g_slist_free(ptr noundef %5)
  %6 = load i32, ptr @socket_fd, align 4
  %7 = call i32 @close(i32 noundef %6)
  %8 = load ptr, ptr @path_to_unlink, align 8
  %9 = icmp ne ptr %8, null
  br i1 %9, label %10, label %13

10:                                               ; preds = %1
  %11 = load ptr, ptr @path_to_unlink, align 8
  %12 = call i32 @unlink(ptr noundef %11) #11
  br label %13

13:                                               ; preds = %10, %1
  ret void
}

; Function Attrs: nounwind sspstrong uwtable
define internal void @plugin_exit(i64 noundef %0, ptr noundef %1) #0 {
  %3 = alloca i64, align 8
  %4 = alloca ptr, align 8
  %5 = alloca ptr, align 8
  store i64 %0, ptr %3, align 8
  store ptr %1, ptr %4, align 8
  call void @llvm.lifetime.start.p0(i64 8, ptr %5) #11
  %6 = call ptr @g_string_new(ptr noundef @.str.24)
  store ptr %6, ptr %5, align 8
  %7 = load ptr, ptr %5, align 8
  %8 = load i64, ptr @bb_count, align 8
  %9 = load ptr, ptr @log, align 8
  %10 = call i32 @g_slist_length(ptr noundef %9)
  call void (ptr, ptr, ...) @g_string_append_printf(ptr noundef %7, ptr noundef @.str.25, i64 noundef %8, i32 noundef %10)
  %11 = load ptr, ptr %5, align 8
  %12 = load i64, ptr @insn_count, align 8
  call void (ptr, ptr, ...) @g_string_append_printf(ptr noundef %11, ptr noundef @.str.26, i64 noundef %12)
  %13 = load ptr, ptr %5, align 8
  %14 = getelementptr inbounds nuw %struct._GString, ptr %13, i32 0, i32 0
  %15 = load ptr, ptr %14, align 8
  call void @qemu_plugin_outs(ptr noundef %15)
  %16 = load i64, ptr %3, align 8
  call void @plugin_cleanup(i64 noundef %16)
  call void @glib_autoptr_cleanup_GString(ptr noundef %5)
  call void @llvm.lifetime.end.p0(i64 8, ptr %5) #11
  ret void
}