; Function Attrs: nounwind sspstrong uwtable
define internal void @plugin_exit(i64 %0, ptr readnone captures(none) %1) #0 {
  %3 = tail call ptr @g_string_new(ptr noundef nonnull @.str.24) #11
  %4 = load i64, ptr @bb_count, align 8
  %5 = load ptr, ptr @log, align 8
  %6 = tail call i32 @g_slist_length(ptr noundef %5) #11
  tail call void (ptr, ptr, ...) @g_string_append_printf(ptr noundef %3, ptr noundef nonnull @.str.25, i64 noundef %4, i32 noundef %6) #11
  %7 = load i64, ptr @insn_count, align 8
  tail call void (ptr, ptr, ...) @g_string_append_printf(ptr noundef %3, ptr noundef nonnull @.str.26, i64 noundef %7) #11
  %8 = load ptr, ptr %3, align 8
  tail call void @qemu_plugin_outs(ptr noundef %8) #11
  %9 = load ptr, ptr @blocks, align 8
  tail call void @g_slist_free_full(ptr noundef %9, ptr noundef nonnull @g_free) #11
  %10 = load ptr, ptr @log, align 8
  tail call void @g_slist_free_full(ptr noundef %10, ptr noundef nonnull @g_free) #11
  %11 = load ptr, ptr @divergence_log, align 8
  tail call void @g_slist_free(ptr noundef %11) #11
  %12 = load i32, ptr @socket_fd, align 4
  %13 = tail call i32 @close(i32 noundef %12) #11
  %14 = load ptr, ptr @path_to_unlink, align 8
  %.not.i = icmp eq ptr %14, null
  br i1 %.not.i, label %glib_autoptr_cleanup_GString.exit, label %15

15:                                               ; preds = %2
  %16 = tail call i32 @unlink(ptr noundef nonnull %14) #11
  br label %glib_autoptr_cleanup_GString.exit

glib_autoptr_cleanup_GString.exit:                ; preds = %2, %15
  %17 = tail call ptr @g_string_free(ptr noundef nonnull %3, i32 noundef 1) #11
  ret void
}